; Function Attrs: mustprogress nounwind uwtable
define void @udat_close_75(ptr noundef %format) local_unnamed_addr #4 {
entry:
  %cmp = icmp eq ptr %format, null
  br i1 %cmp, label %delete.end, label %delete.notnull

delete.notnull:                                   ; preds = %entry
  %vtable = load ptr, ptr %format, align 8
  %vfn = getelementptr inbounds i8, ptr %vtable, i64 8
  %0 = load ptr, ptr %vfn, align 8
  tail call void %0(ptr noundef nonnull align 8 dereferenceable(352) %format) #7
  br label %delete.end

delete.end:                                       ; preds = %entry, %delete.notnull
  ret void
}